; Function Attrs: nounwind uwtable
define ptr @l_Int_Linear_cdiv(ptr noundef %0, ptr noundef %1) local_unnamed_addr #1 {
  %3 = ptrtoint ptr %0 to i64
  %4 = and i64 %3, 1
  %.not.i10 = icmp eq i64 %4, 0
  br i1 %.not.i10, label %18, label %5, !prof !4

5:                                                ; preds = %2
  %6 = shl i64 %3, 31
  %7 = ashr i64 %6, 32
  %8 = sub nsw i64 0, %7
  %9 = add nsw i64 %7, 2147483647
  %10 = icmp ult i64 %9, 4294967296
  br i1 %10, label %11, label %16, !prof !5

11:                                               ; preds = %5
  %12 = shl nsw i64 %8, 1
  %13 = and i64 %12, 8589934590
  %14 = or disjoint i64 %13, 1
  %15 = inttoptr i64 %14 to ptr
  br label %lean_int_neg.exit

16:                                               ; preds = %5
  %17 = tail call ptr @lean_big_int64_to_int(i64 noundef range(i64 -4611686016279904256, 4611686018427387905) %8) #5
  br label %lean_int_neg.exit

18:                                               ; preds = %2
  %19 = tail call ptr @lean_int_big_neg(ptr noundef %0) #5
  br label %lean_int_neg.exit

lean_int_neg.exit:                                ; preds = %11, %16, %18
  %.0.i = phi ptr [ %19, %18 ], [ %15, %11 ], [ %17, %16 ]
  %20 = ptrtoint ptr %.0.i to i64
  %21 = and i64 %20, 1
  %.not.i11 = icmp eq i64 %21, 0
  br i1 %.not.i11, label %48, label %22, !prof !4

22:                                               ; preds = %lean_int_neg.exit
  %23 = ptrtoint ptr %1 to i64
  %24 = and i64 %23, 1
  %.not18.i = icmp eq i64 %24, 0
  br i1 %.not18.i, label %lean_int_ediv.exit.thread17, label %26, !prof !4

lean_int_ediv.exit.thread17:                      ; preds = %22
  %25 = tail call ptr @lean_int_big_ediv(ptr noundef %.0.i, ptr noundef %1) #5
  br label %lean_dec.exit7

26:                                               ; preds = %22
  %27 = lshr i64 %23, 1
  %28 = trunc i64 %27 to i32
  %29 = icmp eq i32 %28, 0
  br i1 %29, label %lean_dec.exit7, label %30

30:                                               ; preds = %26
  %sext.i = shl i64 %27, 32
  %31 = ashr exact i64 %sext.i, 32
  %32 = shl i64 %20, 31
  %33 = ashr i64 %32, 32
  %34 = sdiv i64 %33, %31
  %35 = srem i64 %33, %31
  %36 = icmp slt i64 %35, 0
  %37 = icmp sgt i32 %28, 0
  %.v.i = select i1 %37, i64 -1, i64 1
  %38 = select i1 %36, i64 %.v.i, i64 0
  %.016.i = add nsw i64 %38, %34
  %39 = add nsw i64 %.016.i, 2147483648
  %40 = icmp ult i64 %39, 4294967296
  br i1 %40, label %41, label %46, !prof !5

41:                                               ; preds = %30
  %42 = shl nsw i64 %.016.i, 1
  %43 = and i64 %42, 8589934590
  %44 = or disjoint i64 %43, 1
  %45 = inttoptr i64 %44 to ptr
  br label %lean_dec.exit7

46:                                               ; preds = %30
  %47 = tail call ptr @lean_big_int64_to_int(i64 noundef range(i64 -4611686016279904256, 4611686018427387905) %.016.i) #5
  br label %lean_dec.exit7

48:                                               ; preds = %lean_int_neg.exit
  %49 = tail call ptr @lean_int_big_ediv(ptr noundef %.0.i, ptr noundef %1) #5
  %50 = load i32, ptr %.0.i, align 4, !tbaa !6
  %51 = icmp sgt i32 %50, 1
  br i1 %51, label %52, label %54, !prof !5

52:                                               ; preds = %48
  %53 = add nsw i32 %50, -1
  store i32 %53, ptr %.0.i, align 4, !tbaa !6
  br label %lean_dec.exit7

54:                                               ; preds = %48
  %.not.i = icmp eq i32 %50, 0
  br i1 %.not.i, label %lean_dec.exit7, label %55

55:                                               ; preds = %54
  tail call void @lean_dec_ref_cold(ptr noundef nonnull %.0.i) #5
  br label %lean_dec.exit7

lean_dec.exit7:                                   ; preds = %46, %41, %26, %55, %54, %52, %lean_int_ediv.exit.thread17
  %.1.i16 = phi ptr [ %25, %lean_int_ediv.exit.thread17 ], [ %49, %52 ], [ %49, %54 ], [ %49, %55 ], [ %47, %46 ], [ %45, %41 ], [ inttoptr (i64 1 to ptr), %26 ]
  %56 = ptrtoint ptr %.1.i16 to i64
  %57 = and i64 %56, 1
  %.not.i12 = icmp eq i64 %57, 0
  br i1 %.not.i12, label %71, label %58, !prof !4

58:                                               ; preds = %lean_dec.exit7
  %59 = shl i64 %56, 31
  %60 = ashr i64 %59, 32
  %61 = sub nsw i64 0, %60
  %62 = add nsw i64 %60, 2147483647
  %63 = icmp ult i64 %62, 4294967296
  br i1 %63, label %64, label %69, !prof !5

64:                                               ; preds = %58
  %65 = shl nsw i64 %61, 1
  %66 = and i64 %65, 8589934590
  %67 = or disjoint i64 %66, 1
  %68 = inttoptr i64 %67 to ptr
  br label %lean_dec.exit

69:                                               ; preds = %58
  %70 = tail call ptr @lean_big_int64_to_int(i64 noundef range(i64 -4611686016279904256, 4611686018427387905) %61) #5
  br label %lean_dec.exit

71:                                               ; preds = %lean_dec.exit7
  %72 = tail call ptr @lean_int_big_neg(ptr noundef %.1.i16) #5
  %73 = load i32, ptr %.1.i16, align 4, !tbaa !6
  %74 = icmp sgt i32 %73, 1
  br i1 %74, label %75, label %77, !prof !5

75:                                               ; preds = %71
  %76 = add nsw i32 %73, -1
  store i32 %76, ptr %.1.i16, align 4, !tbaa !6
  br label %lean_dec.exit

77:                                               ; preds = %71
  %.not.i8 = icmp eq i32 %73, 0
  br i1 %.not.i8, label %lean_dec.exit, label %78

78:                                               ; preds = %77
  tail call void @lean_dec_ref_cold(ptr noundef nonnull %.1.i16) #5
  br label %lean_dec.exit

lean_dec.exit:                                    ; preds = %69, %64, %78, %77, %75
  %.0.i1319 = phi ptr [ %72, %75 ], [ %72, %77 ], [ %72, %78 ], [ %70, %69 ], [ %68, %64 ]
  ret ptr %.0.i1319
}